; Function Attrs: mustprogress nounwind uwtable
define void @_ZN26FilterDevelopabilityPluginD2Ev(ptr noundef nonnull align 8 dereferenceable(80) %0, ptr nocapture noundef readonly %1) unnamed_addr #4 align 2 personality ptr @__gxx_personality_v0 {
  %3 = getelementptr inbounds i8, ptr %0, i64 16
  %4 = getelementptr inbounds i8, ptr %1, i64 8
  %5 = load ptr, ptr %4, align 8
  store ptr %5, ptr %3, align 8
  %6 = getelementptr inbounds i8, ptr %1, i64 16
  %7 = load ptr, ptr %6, align 8
  %8 = getelementptr i8, ptr %5, i64 -24
  %9 = load i64, ptr %8, align 8
  %10 = getelementptr inbounds i8, ptr %3, i64 %9
  store ptr %7, ptr %10, align 8
  %11 = getelementptr inbounds i8, ptr %1, i64 24
  %12 = load ptr, ptr %11, align 8
  %13 = load ptr, ptr %3, align 8
  %14 = getelementptr i8, ptr %13, i64 -32
  %15 = load i64, ptr %14, align 8
  %16 = getelementptr inbounds i8, ptr %3, i64 %15
  store ptr %12, ptr %16, align 8
  %17 = getelementptr inbounds i8, ptr %0, i64 56
  %18 = load ptr, ptr %17, align 8
  %.not8.i.i.i.i = icmp eq ptr %18, %17
  br i1 %.not8.i.i.i.i, label %_ZNSt7__cxx114listIiSaIiEED2Ev.exit.i, label %.lr.ph.i.i.i.i

.lr.ph.i.i.i.i:                                   ; preds = %2, %.lr.ph.i.i.i.i
  %.09.i.i.i.i = phi ptr [ %19, %.lr.ph.i.i.i.i ], [ %18, %2 ]
  %19 = load ptr, ptr %.09.i.i.i.i, align 8
  tail call void @_ZdlPv(ptr noundef %.09.i.i.i.i) #24
  %.not.i.i.i.i = icmp eq ptr %19, %17
  br i1 %.not.i.i.i.i, label %_ZNSt7__cxx114listIiSaIiEED2Ev.exit.i, label %.lr.ph.i.i.i.i, !llvm.loop !11

_ZNSt7__cxx114listIiSaIiEED2Ev.exit.i:            ; preds = %.lr.ph.i.i.i.i, %2
  %20 = getelementptr inbounds i8, ptr %0, i64 32
  %21 = load ptr, ptr %20, align 8
  %.not8.i.i.i2.i = icmp eq ptr %21, %20
  br i1 %.not8.i.i.i2.i, label %_ZN12FilterPluginD2Ev.exit, label %.lr.ph.i.i.i3.i

.lr.ph.i.i.i3.i:                                  ; preds = %_ZNSt7__cxx114listIiSaIiEED2Ev.exit.i, %.lr.ph.i.i.i3.i
  %.09.i.i.i4.i = phi ptr [ %22, %.lr.ph.i.i.i3.i ], [ %21, %_ZNSt7__cxx114listIiSaIiEED2Ev.exit.i ]
  %22 = load ptr, ptr %.09.i.i.i4.i, align 8
  tail call void @_ZdlPv(ptr noundef %.09.i.i.i4.i) #24
  %.not.i.i.i5.i = icmp eq ptr %22, %20
  br i1 %.not.i.i.i5.i, label %_ZN12FilterPluginD2Ev.exit, label %.lr.ph.i.i.i3.i, !llvm.loop !12

_ZN12FilterPluginD2Ev.exit:                       ; preds = %.lr.ph.i.i.i3.i, %_ZNSt7__cxx114listIiSaIiEED2Ev.exit.i
  tail call void @_ZN7QObjectD2Ev(ptr noundef nonnull align 8 dereferenceable(16) %0) #25
  ret void
}